Certificate:
    Data:
        Version: 3 (0x2)
        Serial Number: 1 (0x1)
    Signature Algorithm: sha256WithRSAEncryption
        Issuer: C=US, ST=Denial, L=Springfield, O=Dis, CN=www.example.com
        Validity
            Not Before: Oct 17 15:35:30 2019 GMT
            Not After : Oct  4 15:35:30 2069 GMT
        Subject: C=US, ST=Denial, O=Dis, CN=www.example.com
        Subject Public Key Info:
            Public Key Algorithm: rsaEncryption
                Public-Key: (2048 bit)
                Modulus:
                    00:b5:85:d3:74:69:97:30:38:61:45:d2:85:ef:8f:
                    5b:19:f8:3d:29:00:a3:be:01:aa:3b:e4:ba:7e:25:
                    30:6e:06:02:9d:cf:5f:ce:35:45:99:db:26:3e:6a:
                    44:7f:78:66:38:c7:26:04:33:bc:9d:c4:97:e3:35:
                    f0:72:e6:cd:ec:43:06:2a:d8:76:13:ab:14:f5:0f:
                    97:0c:8b:f8:ea:2c:ee:6d:47:3a:a1:21:85:48:44:
                    f0:55:57:e5:0d:74:5a:0b:cb:85:0d:11:1d:5f:88:
                    c9:27:b8:72:4b:da:37:9b:c6:9f:2f:27:46:48:9b:
                    d5:69:3d:85:43:83:27:67:8f:63:9b:2a:11:86:36:
                    7c:b2:01:08:cb:9a:42:bc:d5:fd:22:fc:e3:40:5e:
                    66:bd:b5:e9:66:82:2e:6c:df:68:0b:ea:d4:26:25:
                    7c:af:54:93:3a:fc:d3:08:26:6c:9d:a3:16:1c:5a:
                    0d:ea:fc:c5:db:59:f4:86:68:3b:e4:e1:12:6a:ee:
                    7b:87:5f:a9:1f:ed:c0:74:dc:6e:ba:f4:39:3c:ec:
                    57:4e:47:44:5f:9c:bd:b7:01:ae:a5:2b:f2:8b:9e:
                    81:a2:d9:95:85:d9:69:c0:27:ea:ac:ea:14:93:e7:
                    f2:b1:33:e8:ce:ea:4b:af:b8:63:ca:49:6a:85:bd:
                    e6:19
                Exponent: 65537 (0x10001)
        X509v3 extensions:
            X509v3 Basic Constraints: 
                CA:FALSE
            Netscape Comment: 
                OpenSSL Generated Certificate
            X509v3 Subject Key Identifier: 
                66:8B:5B:0B:55:54:7B:82:84:BA:BC:A5:2D:B6:B4:03:3E:19:F1:A7
            X509v3 Authority Key Identifier: 
                keyid:2C:44:AF:B7:37:52:D7:6D:33:3A:30:47:45:D0:2C:D5:A8:C3:3E:AD

    Signature Algorithm: sha256WithRSAEncryption
         35:2c:d1:80:a5:99:20:8a:bf:e6:0e:87:89:c4:2e:e4:08:d6:
         57:44:7c:e2:84:86:2d:53:69:a9:96:43:0a:c7:04:6f:64:da:
         0a:92:40:91:bf:ee:5e:4a:74:06:0a:4b:5b:55:40:9e:f6:a5:
         bb:87:69:64:18:b8:7b:6a:07:7d:00:79:26:b8:5e:c6:d5:0f:
         f3:33:2d:29:86:65:9f:68:6e:c5:8d:0c:fb:b1:5a:90:d7:2e:
         d8:52:cd:21:5a:df:67:ca:6d:e5:3f:61:8b:61:b4:a0:01:f6:
         bc:50:78:56:a3:5a:50:b5:e4:60:5a:92:da:f9:7f:05:5a:c5:
         59:eb:38:79:d6:8f:82:e9:54:93:ef:6d:04:22:47:3c:10:e0:
         31:f5:08:05:a1:8c:6c:62:d5:2b:45:8b:bd:21:57:83:24:1f:
         78:8d:9c:dc:3e:4c:7c:37:c5:ee:63:00:f2:a3:4c:b3:47:1f:
         15:2a:ad:97:cd:8c:cf:d1:31:84:46:b1:82:f6:e8:ce:76:0a:
         ed:a0:98:26:28:0b:a3:1f:6b:50:ca:13:21:71:c1:64:12:cf:
         8d:a1:9e:c1:29:fe:9f:5d:71:11:96:03:e3:f0:7e:dd:5a:a9:
         a6:38:01:11:a6:23:4a:51:78:00:fa:68:21:36:95:6d:16:f9:
         b4:d9:d4:56
-----BEGIN CERTIFICATE-----
MIIDmjCCAoKgAwIBAgIBATANBgkqhkiG9w0BAQsFADBcMQswCQYDVQQGEwJVUzEP
MA0GA1UECAwGRGVuaWFsMRQwEgYDVQQHDAtTcHJpbmdmaWVsZDEMMAoGA1UECgwD
RGlzMRgwFgYDVQQDDA93d3cuZXhhbXBsZS5jb20wIBcNMTkxMDE3MTUzNTMwWhgP
MjA2OTEwMDQxNTM1MzBaMEYxCzAJBgNVBAYTAlVTMQ8wDQYDVQQIDAZEZW5pYWwx
DDAKBgNVBAoMA0RpczEYMBYGA1UEAwwPd3d3LmV4YW1wbGUuY29tMIIBIjANBgkq
hkiG9w0BAQEFAAOCAQ8AMIIBCgKCAQEAtYXTdGmXMDhhRdKF749bGfg9KQCjvgGq
O+S6fiUwbgYCnc9fzjVFmdsmPmpEf3hmOMcmBDO8ncSX4zXwcubN7EMGKth2E6sU
9Q+XDIv46izubUc6oSGFSETwVVflDXRaC8uFDREdX4jJJ7hyS9o3m8afLydGSJvV
aT2FQ4MnZ49jmyoRhjZ8sgEIy5pCvNX9IvzjQF5mvbXpZoIubN9oC+rUJiV8r1ST
OvzTCCZsnaMWHFoN6vzF21n0hmg75OESau57h1+pH+3AdNxuuvQ5POxXTkdEX5y9
twGupSvyi56BotmVhdlpwCfqrOoUk+fysTPozupLr7hjyklqhb3mGQIDAQABo3sw
eTAJBgNVHRMEAjAAMCwGCWCGSAGG+EIBDQQfFh1PcGVuU1NMIEdlbmVyYXRlZCBD
ZXJ0aWZpY2F0ZTAdBgNVHQ4EFgQUZotbC1VUe4KEurylLba0Az4Z8acwHwYDVR0j
BBgwFoAULESvtzdS120zOjBHRdAs1ajDPq0wDQYJKoZIhvcNAQELBQADggEBADUs
0YClmSCKv+YOh4nELuQI1ldEfOKEhi1TaamWQwrHBG9k2gqSQJG/7l5KdAYKS1tV
QJ72pbuHaWQYuHtqB30AeSa4XsbVD/MzLSmGZZ9obsWNDPuxWpDXLthSzSFa32fK
beU/YYthtKAB9rxQeFajWlC15GBaktr5fwVaxVnrOHnWj4LpVJPvbQQiRzwQ4DH1
CAWhjGxi1StFi70hV4MkH3iNnNw+THw3xe5jAPKjTLNHHxUqrZfNjM/RMYRGsYL2
6M52Cu2gmCYoC6Mfa1DKEyFxwWQSz42hnsEp/p9dcRGWA+Pwft1aqaY4ARGmI0pR
eAD6aCE2lW0W+bTZ1FY=
-----END CERTIFICATE-----
-----BEGIN PRIVATE KEY-----
MIIEvQIBADANBgkqhkiG9w0BAQEFAASCBKcwggSjAgEAAoIBAQC1hdN0aZcwOGFF
0oXvj1sZ+D0pAKO+Aao75Lp+JTBuBgKdz1/ONUWZ2yY+akR/eGY4xyYEM7ydxJfj
NfBy5s3sQwYq2HYTqxT1D5cMi/jqLO5tRzqhIYVIRPBVV+UNdFoLy4UNER1fiMkn
uHJL2jebxp8vJ0ZIm9VpPYVDgydnj2ObKhGGNnyyAQjLmkK81f0i/ONAXma9telm
gi5s32gL6tQmJXyvVJM6/NMIJmydoxYcWg3q/MXbWfSGaDvk4RJq7nuHX6kf7cB0
3G669Dk87FdOR0RfnL23Aa6lK/KLnoGi2ZWF2WnAJ+qs6hST5/KxM+jO6kuvuGPK
SWqFveYZAgMBAAECggEAOIisebYlEyyMBw3xDtIsAmOQ0MNVO+kS1sJ+3qjAc5PF
ntamNPfcbHWXbJr2KGkcFRTZHzfpx40h7O6wq2h8u9eIBTITXD7NMSGg3pR9eplx
zHEBrotdEkv+OeY8/Tq+jKvfDVnGNynH1GoalssoxIhQrYPi3NxD1BoH9iXT0OmO
SkMYxAhP/ORHaae3ZCvEwJYcB2fHf+3Fw2cQqfPZ7mHH9HTrJ6Lc5m8IeEGLb6vC
D+w8nhCYiFxx6Yk+q62+Y4Emrmjy+34l2zKLeE8w9y6wVCPXJCC1wodqfi2zpTcf
MA/qlaIWcRxHlSHxM7pcd1yHwYe0giim654o9oTtgQKBgQDX8OK3B9WnDfP77zUw
9HFuR+E5BCNLLO0l3eT0eWvN7ATIGMh6w6nOFKXyKPkFRvQb9DbLul9G+u7Dq2Y4
6jCe+E61lDzsYhUeFYSJZzis4bzypJq2jpcYU6YZ2LMdNBuRq4O21d4uqXIJJQ+G
zxaxsutcq9k8hLvNrq12McggiQKBgQDXMmhTpNtfQ7KxJxt++iIl0pTAtFzvchCY
4A+ZLyI6tnWgaVzC85S9O1xsXPal5YzHHSJpVJvbjUn2hY401e9sv0Ai3khVg2XO
N0DVs4WmlwQafXKq/Xx5CSOa2WNZxs1FMEA581Zf3DEZluKjq/bQxMb1l22LnSgl
BgKrD2SVEQKBgQCDtKRSxjCFp3j8XDWxGiZlAOpZgDCWlVw/EEuo4LXj7uQrtxHv
7o8O5oEgZeUcVt5kfls9fvrFrB8csNm0NQJas1AuZ6+Q7XG725vuwkpLB5Pa2pKS
bf2yFLLmaMk2MqXt/xJi3aaaBzdKZJRHwN8ymtH6v8XLp5l0JeoegNZzIQKBgFRH
rqpLn4sA1YQiH9esGSGdBpsuSFOS5cMpxZIl7o72FL1dZnIHudIe5ISgKA0zCN6W
n3qHI39qJ3SAPACfZOS/RlwhmEy9aGrKIv9PDuH+tSG2zej/2/b/SE2GJC3t+UjG
q/DGR6bFcwllmZ+mYsTCvHVE+Cc8xpMxdmwOXEMxAoGAF3Nwlz3j2lMJXe28vcEe
0LoSJr4qorgQIPaGOl110U0qfiFQI9u80APROLwZ/rUljBebFPIstrjP1Fii7A/0
GmCkwD0ascnJb94pdV8lbjpAz/IEHkpdn6qin8PB9UpyP0cFqXbiTkGMGN6QCcZN
HjczlEbD9hgdFjBjlpL4/EE=
-----END PRIVATE KEY-----
